; Function Attrs: mustprogress uwtable
define hidden void @_ZN4cvc58internal6theory22TheoryInferenceManager11preferPhaseENS0_12NodeTemplateILb0EEEb(ptr nocapture noundef nonnull readonly align 8 dereferenceable(256) %this, ptr nocapture noundef readonly %n, i1 noundef zeroext %pol) local_unnamed_addr #3 align 2 personality ptr @__gxx_personality_v0 {
entry:
  %en = alloca %"class.cvc5::internal::NodeTemplate", align 8
  %agg.tmp = alloca %"class.cvc5::internal::NodeTemplate.590", align 8
  %agg.tmp2 = alloca %"class.cvc5::internal::NodeTemplate.590", align 8
  %d_theoryState = getelementptr inbounds i8, ptr %this, i64 24
  %0 = load ptr, ptr %d_theoryState, align 8
  %call = tail call noundef nonnull align 8 dereferenceable(8) ptr @_ZN4cvc58internal6theory11TheoryState12getValuationEv(ptr noundef nonnull align 8 dereferenceable(80) %0)
  %1 = load ptr, ptr %n, align 8
  store ptr %1, ptr %agg.tmp, align 8
  call void @_ZN4cvc58internal6theory9Valuation13ensureLiteralENS0_12NodeTemplateILb0EEE(ptr nonnull sret(%"class.cvc5::internal::NodeTemplate") align 8 %en, ptr noundef nonnull align 8 dereferenceable(8) %call, ptr noundef nonnull %agg.tmp)
  %d_out = getelementptr inbounds i8, ptr %this, i64 32
  %2 = load ptr, ptr %d_out, align 8
  %3 = load ptr, ptr %en, align 8
  store ptr %3, ptr %agg.tmp2, align 8
  %vtable = load ptr, ptr %2, align 8
  %vfn = getelementptr inbounds i8, ptr %vtable, i64 48
  %4 = load ptr, ptr %vfn, align 8
  invoke void %4(ptr noundef nonnull align 8 dereferenceable(100) %2, ptr noundef nonnull %agg.tmp2, i1 noundef zeroext %pol)
          to label %invoke.cont6 unwind label %lpad5

invoke.cont6:                                     ; preds = %entry
  %5 = load ptr, ptr %en, align 8
  %bf.load.i.i = load i64, ptr %5, align 8
  %6 = and i64 %bf.load.i.i, 1152920405095219200
  %cmp.not.i.i = icmp eq i64 %6, 1152920405095219200
  br i1 %cmp.not.i.i, label %_ZN4cvc58internal12NodeTemplateILb1EED2Ev.exit, label %if.then.i.i

if.then.i.i:                                      ; preds = %invoke.cont6
  %bf.value.i.i = add i64 %bf.load.i.i, 1152920405095219200
  %bf.shl.i.i = and i64 %bf.value.i.i, 1152920405095219200
  %bf.clear7.i.i = and i64 %bf.load.i.i, -1152920405095219201
  %bf.set.i.i = or disjoint i64 %bf.shl.i.i, %bf.clear7.i.i
  store i64 %bf.set.i.i, ptr %5, align 8
  %cmp12.i.i = icmp eq i64 %bf.shl.i.i, 0
  br i1 %cmp12.i.i, label %if.then13.i.i, label %_ZN4cvc58internal12NodeTemplateILb1EED2Ev.exit

if.then13.i.i:                                    ; preds = %if.then.i.i
  invoke void @_ZN4cvc58internal4expr9NodeValue15markForDeletionEv(ptr noundef nonnull align 8 dereferenceable(16) %5)
          to label %_ZN4cvc58internal12NodeTemplateILb1EED2Ev.exit unwind label %terminate.lpad.i

terminate.lpad.i:                                 ; preds = %if.then13.i.i
  %7 = landingpad { ptr, i32 }
          catch ptr null
  %8 = extractvalue { ptr, i32 } %7, 0
  call void @__clang_call_terminate(ptr %8) #26
  unreachable

_ZN4cvc58internal12NodeTemplateILb1EED2Ev.exit:   ; preds = %invoke.cont6, %if.then.i.i, %if.then13.i.i
  ret void

lpad5:                                            ; preds = %entry
  %9 = landingpad { ptr, i32 }
          cleanup
  call void @_ZN4cvc58internal12NodeTemplateILb1EED2Ev(ptr noundef nonnull align 8 dereferenceable(8) %en) #25
  resume { ptr, i32 } %9
}